target datalayout = "e-m:e-p270:32:32-p271:32:32-p272:64:64-i64:64-i128:128-f80:128-n8:16:32:64-S128"
target triple = "x86_64-pc-linux-gnu"

%struct.CVodeMemRec = type { double, ptr, ptr, i32, i32, i32, double, double, ptr, i32, ptr, ptr, i32, ptr, i32, i32, double, double, ptr, i32, i32, i32, ptr, ptr, ptr, i32, i32, ptr, ptr, ptr, i32, double, i32, i32, double, ptr, ptr, i32, ptr, ptr, i32, i32, i32, double, ptr, ptr, [13 x ptr], ptr, ptr, ptr, ptr, ptr, [13 x ptr], ptr, ptr, ptr, ptr, [13 x ptr], ptr, ptr, ptr, ptr, ptr, i32, [13 x ptr], ptr, ptr, ptr, ptr, ptr, i32, double, i32, i32, i32, i32, i32, double, double, double, double, double, double, double, double, [14 x double], [6 x double], [13 x double], double, double, double, double, double, double, double, double, double, double, double, i32, ptr, i32, i64, i32, i32, i32, i32, i32, double, double, double, i64, i64, i64, i64, i64, i64, i64, i64, i64, ptr, i64, i64, ptr, i64, i64, i64, i64, i64, i64, i32, i64, i64, i64, i64, i64, i64, double, double, double, ptr, ptr, ptr, ptr, ptr, i32, i32, i64, double, double, double, i32, double, i32, i32, i32, i32, i32, i32, i32, i32, i32, i32, i32, i32, i32, i32, i32, i32, ptr, ptr, ptr, i32, [6 x [4 x double]], i32, i64, ptr, i32, ptr, ptr, double, double, double, ptr, ptr, ptr, double, double, i32, i32, i64, ptr, i32, i32, ptr, i32 }
%struct.CVBBDPrecDataRec = type { i64, i64, i64, i64, double, ptr, ptr, ptr, ptr, ptr, i64, i64, i64, i64, ptr }
%struct.CVSpilsMemRec = type { i32, i32, i32, double, double, double, double, i32, i64, i64, i64, i64, i64, i64, i64, ptr, ptr, ptr, ptr, ptr, ptr, ptr, ptr, ptr, i32, ptr, ptr, i64 }

@.str = private unnamed_addr constant [9 x i8] c"CVBBDPRE\00", align 1
@.str.2 = private unnamed_addr constant [27 x i8] c"Integrator memory is NULL.\00", align 1
@.str.3 = private unnamed_addr constant [80 x i8] c"Linear solver memory is NULL. One of the SPILS linear solvers must be attached.\00", align 1
@.str.6 = private unnamed_addr constant [16 x i8] c"CVBBDPrecReInit\00", align 1
@.str.7 = private unnamed_addr constant [64 x i8] c"BBD peconditioner memory is NULL. CVBBDPrecInit must be called.\00", align 1

; Function Attrs: nounwind uwtable
define i32 @CVBBDPrecReInit(ptr noundef %0, i64 noundef %1, i64 noundef %2, double noundef %3) #0 {
  %5 = alloca i32, align 4
  %6 = alloca ptr, align 8
  %7 = alloca i64, align 8
  %8 = alloca i64, align 8
  %9 = alloca double, align 8
  %10 = alloca ptr, align 8
  %11 = alloca ptr, align 8
  %12 = alloca ptr, align 8
  %13 = alloca i64, align 8
  %14 = alloca i32, align 4
  store ptr %0, ptr %6, align 8, !tbaa !3
  store i64 %1, ptr %7, align 8, !tbaa !7
  store i64 %2, ptr %8, align 8, !tbaa !7
  store double %3, ptr %9, align 8, !tbaa !9
  call void @llvm.lifetime.start.p0(i64 8, ptr %10) #5
  call void @llvm.lifetime.start.p0(i64 8, ptr %11) #5
  call void @llvm.lifetime.start.p0(i64 8, ptr %12) #5
  call void @llvm.lifetime.start.p0(i64 8, ptr %13) #5
  %15 = load ptr, ptr %6, align 8, !tbaa !3
  %16 = icmp eq ptr %15, null
  br i1 %16, label %17, label %18

17:                                               ; preds = %4
  call void (ptr, i32, ptr, ptr, ptr, ...) @cvProcessError(ptr noundef null, i32 noundef -1, ptr noundef @.str, ptr noundef @.str.6, ptr noundef @.str.2)
  store i32 -1, ptr %5, align 4
  store i32 1, ptr %14, align 4
  br label %108

18:                                               ; preds = %4
  %19 = load ptr, ptr %6, align 8, !tbaa !3
  store ptr %19, ptr %10, align 8, !tbaa !11
  %20 = load ptr, ptr %10, align 8, !tbaa !11
  %21 = getelementptr inbounds nuw %struct.CVodeMemRec, ptr %20, i32 0, i32 144
  %22 = load ptr, ptr %21, align 8, !tbaa !13
  %23 = icmp eq ptr %22, null
  br i1 %23, label %24, label %26

24:                                               ; preds = %18
  %25 = load ptr, ptr %10, align 8, !tbaa !11
  call void (ptr, i32, ptr, ptr, ptr, ...) @cvProcessError(ptr noundef %25, i32 noundef -2, ptr noundef @.str, ptr noundef @.str.6, ptr noundef @.str.3)
  store i32 -2, ptr %5, align 4
  store i32 1, ptr %14, align 4
  br label %108

26:                                               ; preds = %18
  %27 = load ptr, ptr %10, align 8, !tbaa !11
  %28 = getelementptr inbounds nuw %struct.CVodeMemRec, ptr %27, i32 0, i32 144
  %29 = load ptr, ptr %28, align 8, !tbaa !13
  store ptr %29, ptr %11, align 8, !tbaa !23
  %30 = load ptr, ptr %11, align 8, !tbaa !23
  %31 = getelementptr inbounds nuw %struct.CVSpilsMemRec, ptr %30, i32 0, i32 23
  %32 = load ptr, ptr %31, align 8, !tbaa !51
  %33 = icmp eq ptr %32, null
  br i1 %33, label %34, label %36

34:                                               ; preds = %26
  %35 = load ptr, ptr %10, align 8, !tbaa !11
  call void (ptr, i32, ptr, ptr, ptr, ...) @cvProcessError(ptr noundef %35, i32 noundef -5, ptr noundef @.str, ptr noundef @.str.6, ptr noundef @.str.7)
  store i32 -5, ptr %5, align 4
  store i32 1, ptr %14, align 4
  br label %108

36:                                               ; preds = %26
  %37 = load ptr, ptr %11, align 8, !tbaa !23
  %38 = getelementptr inbounds nuw %struct.CVSpilsMemRec, ptr %37, i32 0, i32 23
  %39 = load ptr, ptr %38, align 8, !tbaa !51
  store ptr %39, ptr %12, align 8, !tbaa !31
  %40 = load ptr, ptr %12, align 8, !tbaa !31
  %41 = getelementptr inbounds nuw %struct.CVBBDPrecDataRec, ptr %40, i32 0, i32 10
  %42 = load i64, ptr %41, align 8, !tbaa !47
  store i64 %42, ptr %13, align 8, !tbaa !7
  %43 = load i64, ptr %13, align 8, !tbaa !7
  %44 = sub nsw i64 %43, 1
  %45 = load i64, ptr %7, align 8, !tbaa !7
  %46 = icmp sgt i64 0, %45
  br i1 %46, label %47, label %48

47:                                               ; preds = %36
  br label %50

48:                                               ; preds = %36
  %49 = load i64, ptr %7, align 8, !tbaa !7
  br label %50

50:                                               ; preds = %48, %47
  %51 = phi i64 [ 0, %47 ], [ %49, %48 ]
  %52 = icmp slt i64 %44, %51
  br i1 %52, label %53, label %56

53:                                               ; preds = %50
  %54 = load i64, ptr %13, align 8, !tbaa !7
  %55 = sub nsw i64 %54, 1
  br label %64

56:                                               ; preds = %50
  %57 = load i64, ptr %7, align 8, !tbaa !7
  %58 = icmp sgt i64 0, %57
  br i1 %58, label %59, label %60

59:                                               ; preds = %56
  br label %62

60:                                               ; preds = %56
  %61 = load i64, ptr %7, align 8, !tbaa !7
  br label %62

62:                                               ; preds = %60, %59
  %63 = phi i64 [ 0, %59 ], [ %61, %60 ]
  br label %64

64:                                               ; preds = %62, %53
  %65 = phi i64 [ %55, %53 ], [ %63, %62 ]
  %66 = load ptr, ptr %12, align 8, !tbaa !31
  %67 = getelementptr inbounds nuw %struct.CVBBDPrecDataRec, ptr %66, i32 0, i32 0
  store i64 %65, ptr %67, align 8, !tbaa !38
  %68 = load i64, ptr %13, align 8, !tbaa !7
  %69 = sub nsw i64 %68, 1
  %70 = load i64, ptr %8, align 8, !tbaa !7
  %71 = icmp sgt i64 0, %70
  br i1 %71, label %72, label %73

72:                                               ; preds = %64
  br label %75

73:                                               ; preds = %64
  %74 = load i64, ptr %8, align 8, !tbaa !7
  br label %75

75:                                               ; preds = %73, %72
  %76 = phi i64 [ 0, %72 ], [ %74, %73 ]
  %77 = icmp slt i64 %69, %76
  br i1 %77, label %78, label %81

78:                                               ; preds = %75
  %79 = load i64, ptr %13, align 8, !tbaa !7
  %80 = sub nsw i64 %79, 1
  br label %89

81:                                               ; preds = %75
  %82 = load i64, ptr %8, align 8, !tbaa !7
  %83 = icmp sgt i64 0, %82
  br i1 %83, label %84, label %85

84:                                               ; preds = %81
  br label %87

85:                                               ; preds = %81
  %86 = load i64, ptr %8, align 8, !tbaa !7
  br label %87

87:                                               ; preds = %85, %84
  %88 = phi i64 [ 0, %84 ], [ %86, %85 ]
  br label %89

89:                                               ; preds = %87, %78
  %90 = phi i64 [ %80, %78 ], [ %88, %87 ]
  %91 = load ptr, ptr %12, align 8, !tbaa !31
  %92 = getelementptr inbounds nuw %struct.CVBBDPrecDataRec, ptr %91, i32 0, i32 1
  store i64 %90, ptr %92, align 8, !tbaa !39
  %93 = load double, ptr %9, align 8, !tbaa !9
  %94 = fcmp ogt double %93, 0.000000e+00
  br i1 %94, label %95, label %97

95:                                               ; preds = %89
  %96 = load double, ptr %9, align 8, !tbaa !9
  br label %102

97:                                               ; preds = %89
  %98 = load ptr, ptr %10, align 8, !tbaa !11
  %99 = getelementptr inbounds nuw %struct.CVodeMemRec, ptr %98, i32 0, i32 0
  %100 = load double, ptr %99, align 8, !tbaa !45
  %101 = call double @SUNRsqrt(double noundef %100)
  br label %102

102:                                              ; preds = %97, %95
  %103 = phi double [ %96, %95 ], [ %101, %97 ]
  %104 = load ptr, ptr %12, align 8, !tbaa !31
  %105 = getelementptr inbounds nuw %struct.CVBBDPrecDataRec, ptr %104, i32 0, i32 4
  store double %103, ptr %105, align 8, !tbaa !46
  %106 = load ptr, ptr %12, align 8, !tbaa !31
  %107 = getelementptr inbounds nuw %struct.CVBBDPrecDataRec, ptr %106, i32 0, i32 13
  store i64 0, ptr %107, align 8, !tbaa !50
  store i32 0, ptr %5, align 4
  store i32 1, ptr %14, align 4
  br label %108

108:                                              ; preds = %102, %34, %24, %17
  call void @llvm.lifetime.end.p0(i64 8, ptr %13) #5
  call void @llvm.lifetime.end.p0(i64 8, ptr %12) #5
  call void @llvm.lifetime.end.p0(i64 8, ptr %11) #5
  call void @llvm.lifetime.end.p0(i64 8, ptr %10) #5
  %109 = load i32, ptr %5, align 4
  ret i32 %109
}