; Function Attrs: nounwind uwtable
define range(i32 -5, 1) i32 @CVBBDPrecReInit(ptr noundef %0, i64 noundef %1, i64 noundef %2, double noundef %3) local_unnamed_addr #0 {
  %5 = icmp eq ptr %0, null
  br i1 %5, label %6, label %7

6:                                                ; preds = %4
  tail call void (ptr, i32, ptr, ptr, ptr, ...) @cvProcessError(ptr noundef null, i32 noundef -1, ptr noundef nonnull @.str, ptr noundef nonnull @.str.6, ptr noundef nonnull @.str.2) #6
  br label %33

7:                                                ; preds = %4
  %8 = getelementptr inbounds nuw i8, ptr %0, i64 1696
  %9 = load ptr, ptr %8, align 8, !tbaa !3
  %10 = icmp eq ptr %9, null
  br i1 %10, label %11, label %12

11:                                               ; preds = %7
  tail call void (ptr, i32, ptr, ptr, ptr, ...) @cvProcessError(ptr noundef nonnull %0, i32 noundef -2, ptr noundef nonnull @.str, ptr noundef nonnull @.str.6, ptr noundef nonnull @.str.3) #6
  br label %33

12:                                               ; preds = %7
  %13 = getelementptr inbounds nuw i8, ptr %9, i64 176
  %14 = load ptr, ptr %13, align 8, !tbaa !42
  %15 = icmp eq ptr %14, null
  br i1 %15, label %16, label %17

16:                                               ; preds = %12
  tail call void (ptr, i32, ptr, ptr, ptr, ...) @cvProcessError(ptr noundef nonnull %0, i32 noundef -5, ptr noundef nonnull @.str, ptr noundef nonnull @.str.6, ptr noundef nonnull @.str.7) #6
  br label %33

17:                                               ; preds = %12
  %18 = getelementptr inbounds nuw i8, ptr %14, i64 80
  %19 = load i64, ptr %18, align 8, !tbaa !38
  %20 = add nsw i64 %19, -1
  %21 = tail call i64 @llvm.smax.i64(i64 %1, i64 0)
  %.not = icmp sgt i64 %19, %21
  %. = select i1 %.not, i64 %21, i64 %20
  store i64 %., ptr %14, align 8, !tbaa !29
  %22 = tail call i64 @llvm.smax.i64(i64 %2, i64 0)
  %.not35 = icmp sgt i64 %19, %22
  %23 = select i1 %.not35, i64 %22, i64 %20
  %24 = getelementptr inbounds nuw i8, ptr %14, i64 8
  store i64 %23, ptr %24, align 8, !tbaa !30
  %25 = fcmp ogt double %3, 0.000000e+00
  br i1 %25, label %29, label %26

26:                                               ; preds = %17
  %27 = load double, ptr %0, align 8, !tbaa !36
  %28 = tail call double @SUNRsqrt(double noundef %27) #6
  br label %29

29:                                               ; preds = %17, %26
  %30 = phi double [ %28, %26 ], [ %3, %17 ]
  %31 = getelementptr inbounds nuw i8, ptr %14, i64 32
  store double %30, ptr %31, align 8, !tbaa !37
  %32 = getelementptr inbounds nuw i8, ptr %14, i64 104
  store i64 0, ptr %32, align 8, !tbaa !41
  br label %33

33:                                               ; preds = %29, %16, %11, %6
  %.0 = phi i32 [ -1, %6 ], [ -2, %11 ], [ -5, %16 ], [ 0, %29 ]
  ret i32 %.0
}